target datalayout = "e-m:e-p270:32:32-p271:32:32-p272:64:64-i64:64-i128:128-f80:128-n8:16:32:64-S128"
target triple = "x86_64-pc-linux-gnu"

%"class.icu_77::Locale" = type <{ %"class.icu_77::UObject", [12 x i8], [6 x i8], [4 x i8], [2 x i8], i32, [4 x i8], ptr, [157 x i8], [3 x i8], ptr, i8, [7 x i8] }>
%"class.icu_77::UObject" = type { ptr }

; Function Attrs: inlinehint mustprogress nounwind uwtable
define linkonce_odr noundef ptr @_ZNK6icu_776Locale7getNameEv(ptr noundef nonnull align 8 dereferenceable(217) %0) #2 comdat align 2 {
  %2 = alloca ptr, align 8
  store ptr %0, ptr %2, align 8, !tbaa !35
  %3 = load ptr, ptr %2, align 8
  %4 = getelementptr inbounds nuw %"class.icu_77::Locale", ptr %3, i32 0, i32 7
  %5 = load ptr, ptr %4, align 8, !tbaa !37
  ret ptr %5
}

; Function Attrs: inlinehint mustprogress nounwind uwtable
define internal noundef signext i8 @_ZL9U_FAILURE10UErrorCode(i32 noundef %0) #2 {
  %2 = alloca i32, align 4
  store i32 %0, ptr %2, align 4, !tbaa !15
  %3 = load i32, ptr %2, align 4, !tbaa !15
  %4 = icmp sgt i32 %3, 0
  %5 = zext i1 %4 to i8
  ret i8 %5
}

; Function Attrs: mustprogress uwtable
define i32 @ulocbld_buildLocaleID_77(ptr noundef %0, ptr noundef %1, i32 noundef %2, ptr noundef %3) #1 personality ptr @__gxx_personality_v0 {
  %5 = alloca i32, align 4
  %6 = alloca ptr, align 8
  %7 = alloca ptr, align 8
  %8 = alloca i32, align 4
  %9 = alloca ptr, align 8
  %10 = alloca %"class.icu_77::Locale", align 8
  %11 = alloca ptr, align 8
  %12 = alloca i32, align 4
  %13 = alloca i32, align 4
  %14 = alloca i32, align 4
  store ptr %0, ptr %6, align 8, !tbaa !23
  store ptr %1, ptr %7, align 8, !tbaa !17
  store i32 %2, ptr %8, align 4, !tbaa !14
  store ptr %3, ptr %9, align 8, !tbaa !22
  %15 = load ptr, ptr %9, align 8, !tbaa !22
  %16 = load i32, ptr %15, align 4, !tbaa !15
  %17 = call noundef signext i8 @_ZL9U_FAILURE10UErrorCode(i32 noundef %16)
  %18 = icmp ne i8 %17, 0
  br i1 %18, label %19, label %20

19:                                               ; preds = %4
  store i32 0, ptr %5, align 4
  br label %71

20:                                               ; preds = %4
  %21 = load ptr, ptr %6, align 8, !tbaa !23
  %22 = icmp eq ptr %21, null
  br i1 %22, label %23, label %25

23:                                               ; preds = %20
  %24 = load ptr, ptr %9, align 8, !tbaa !22
  store i32 1, ptr %24, align 4, !tbaa !15
  store i32 0, ptr %5, align 4
  br label %71

25:                                               ; preds = %20
  call void @llvm.lifetime.start.p0(i64 224, ptr %10) #11
  %26 = load ptr, ptr %6, align 8, !tbaa !23
  %27 = load ptr, ptr %9, align 8, !tbaa !22
  call void @_ZN6icu_7713LocaleBuilder5buildER10UErrorCode(ptr dead_on_unwind writable sret(%"class.icu_77::Locale") align 8 %10, ptr noundef nonnull align 8 dereferenceable(48) %26, ptr noundef nonnull align 4 dereferenceable(4) %27)
  %28 = load ptr, ptr %9, align 8, !tbaa !22
  %29 = load i32, ptr %28, align 4, !tbaa !15
  %30 = invoke noundef signext i8 @_ZL9U_FAILURE10UErrorCode(i32 noundef %29)
          to label %31 unwind label %34

31:                                               ; preds = %25
  %32 = icmp ne i8 %30, 0
  br i1 %32, label %33, label %38

33:                                               ; preds = %31
  store i32 0, ptr %5, align 4
  store i32 1, ptr %13, align 4
  br label %69

34:                                               ; preds = %25
  %35 = landingpad { ptr, i32 }
          cleanup
  %36 = extractvalue { ptr, i32 } %35, 0
  store ptr %36, ptr %11, align 8
  %37 = extractvalue { ptr, i32 } %35, 1
  store i32 %37, ptr %12, align 4
  br label %70

38:                                               ; preds = %31
  call void @llvm.lifetime.start.p0(i64 4, ptr %14) #11
  %39 = invoke noundef ptr @_ZNK6icu_776Locale7getNameEv(ptr noundef nonnull align 8 dereferenceable(217) %10)
          to label %40 unwind label %58

40:                                               ; preds = %38
  %41 = call i64 @strlen(ptr noundef %39) #14
  %42 = trunc i64 %41 to i32
  store i32 %42, ptr %14, align 4, !tbaa !14
  %43 = load i32, ptr %14, align 4, !tbaa !14
  %44 = icmp slt i32 0, %43
  br i1 %44, label %45, label %62

45:                                               ; preds = %40
  %46 = load i32, ptr %14, align 4, !tbaa !14
  %47 = load i32, ptr %8, align 4, !tbaa !14
  %48 = icmp sle i32 %46, %47
  br i1 %48, label %49, label %62

49:                                               ; preds = %45
  br label %50

50:                                               ; preds = %49
  %51 = load ptr, ptr %7, align 8, !tbaa !17
  %52 = invoke noundef ptr @_ZNK6icu_776Locale7getNameEv(ptr noundef nonnull align 8 dereferenceable(217) %10)
          to label %53 unwind label %58

53:                                               ; preds = %50
  %54 = load i32, ptr %14, align 4, !tbaa !14
  %55 = sext i32 %54 to i64
  call void @llvm.memcpy.p0.p0.i64(ptr align 1 %51, ptr align 1 %52, i64 %55, i1 false)
  br label %56

56:                                               ; preds = %53
  br label %57

57:                                               ; preds = %56
  br label %62

58:                                               ; preds = %62, %50, %38
  %59 = landingpad { ptr, i32 }
          cleanup
  %60 = extractvalue { ptr, i32 } %59, 0
  store ptr %60, ptr %11, align 8
  %61 = extractvalue { ptr, i32 } %59, 1
  store i32 %61, ptr %12, align 4
  call void @llvm.lifetime.end.p0(i64 4, ptr %14) #11
  br label %70

62:                                               ; preds = %57, %45, %40
  %63 = load ptr, ptr %7, align 8, !tbaa !17
  %64 = load i32, ptr %8, align 4, !tbaa !14
  %65 = load i32, ptr %14, align 4, !tbaa !14
  %66 = load ptr, ptr %9, align 8, !tbaa !22
  %67 = invoke i32 @u_terminateChars_77(ptr noundef %63, i32 noundef %64, i32 noundef %65, ptr noundef %66)
          to label %68 unwind label %58

68:                                               ; preds = %62
  store i32 %67, ptr %5, align 4
  store i32 1, ptr %13, align 4
  call void @llvm.lifetime.end.p0(i64 4, ptr %14) #11
  br label %69

69:                                               ; preds = %68, %33
  call void @_ZN6icu_776LocaleD1Ev(ptr noundef nonnull align 8 dereferenceable(217) %10) #11
  call void @llvm.lifetime.end.p0(i64 224, ptr %10) #11
  br label %71

70:                                               ; preds = %58, %34
  call void @_ZN6icu_776LocaleD1Ev(ptr noundef nonnull align 8 dereferenceable(217) %10) #11
  call void @llvm.lifetime.end.p0(i64 224, ptr %10) #11
  br label %73

71:                                               ; preds = %69, %23, %19
  %72 = load i32, ptr %5, align 4
  ret i32 %72

73:                                               ; preds = %70
  %74 = load ptr, ptr %11, align 8
  %75 = load i32, ptr %12, align 4
  %76 = insertvalue { ptr, i32 } poison, ptr %74, 0
  %77 = insertvalue { ptr, i32 } %76, i32 %75, 1
  resume { ptr, i32 } %77
}