; Function Attrs: mustprogress uwtable
define i32 @ulocbld_buildLocaleID_77(ptr noundef %0, ptr noundef %1, i32 noundef %2, ptr noundef %3) local_unnamed_addr #1 personality ptr @__gxx_personality_v0 {
  %5 = alloca %"class.icu_77::Locale", align 8
  %6 = load i32, ptr %3, align 4, !tbaa !13
  %7 = icmp slt i32 %6, 1
  br i1 %7, label %8, label %27

8:                                                ; preds = %4
  %9 = icmp eq ptr %0, null
  br i1 %9, label %10, label %11

10:                                               ; preds = %8
  store i32 1, ptr %3, align 4, !tbaa !13
  br label %27

11:                                               ; preds = %8
  call void @llvm.lifetime.start.p0(i64 224, ptr nonnull %5) #13
  call void @_ZN6icu_7713LocaleBuilder5buildER10UErrorCode(ptr dead_on_unwind nonnull writable sret(%"class.icu_77::Locale") align 8 %5, ptr noundef nonnull align 8 dereferenceable(48) %0, ptr noundef nonnull align 4 dereferenceable(4) %3)
  %12 = load i32, ptr %3, align 4, !tbaa !13
  %13 = icmp slt i32 %12, 1
  br i1 %13, label %14, label %26

14:                                               ; preds = %11
  %15 = getelementptr inbounds nuw i8, ptr %5, i64 40
  %16 = load ptr, ptr %15, align 8, !tbaa !21
  %17 = call i64 @strlen(ptr noundef nonnull dereferenceable(1) %16) #16
  %18 = trunc i64 %17 to i32
  %19 = icmp slt i32 %18, 1
  %.not20 = icmp slt i32 %2, %18
  %or.cond = or i1 %19, %.not20
  br i1 %or.cond, label %24, label %20

20:                                               ; preds = %14
  %21 = and i64 %17, 2147483647
  call void @llvm.memcpy.p0.p0.i64(ptr align 1 %1, ptr nonnull align 1 %16, i64 %21, i1 false)
  br label %24

22:                                               ; preds = %24
  %23 = landingpad { ptr, i32 }
          cleanup
  call void @_ZN6icu_776LocaleD1Ev(ptr noundef nonnull align 8 dereferenceable(217) %5) #13
  call void @llvm.lifetime.end.p0(i64 224, ptr nonnull %5) #13
  resume { ptr, i32 } %23

24:                                               ; preds = %20, %14
  %25 = invoke i32 @u_terminateChars_77(ptr noundef %1, i32 noundef %2, i32 noundef %18, ptr noundef nonnull %3)
          to label %26 unwind label %22

26:                                               ; preds = %24, %11
  %.1 = phi i32 [ 0, %11 ], [ %25, %24 ]
  call void @_ZN6icu_776LocaleD1Ev(ptr noundef nonnull align 8 dereferenceable(217) %5) #13
  call void @llvm.lifetime.end.p0(i64 224, ptr nonnull %5) #13
  br label %27

27:                                               ; preds = %4, %26, %10
  %.0 = phi i32 [ 0, %10 ], [ %.1, %26 ], [ 0, %4 ]
  ret i32 %.0
}